target datalayout = "e-m:e-p270:32:32-p271:32:32-p272:64:64-i64:64-i128:128-f80:128-n8:16:32:64-S128"
target triple = "x86_64-pc-linux-gnu"

%struct.anon = type { i8 }
%"struct.std::__1::pair" = type { %"class.std::__1::basic_string", %"class.std::__1::basic_string" }
%"class.std::__1::basic_string" = type { %"class.std::__1::__compressed_pair" }
%"class.std::__1::__compressed_pair" = type { %"struct.std::__1::__compressed_pair_elem" }
%"struct.std::__1::__compressed_pair_elem" = type { %"struct.std::__1::basic_string<char>::__rep" }
%"struct.std::__1::basic_string<char>::__rep" = type { %union.anon }
%union.anon = type { %"struct.std::__1::basic_string<char>::__long" }
%"struct.std::__1::basic_string<char>::__long" = type { %struct.anon.0, i64, ptr }
%struct.anon.0 = type { i64 }
%class.anon.31 = type { i8 }
%"struct.std::__1::basic_string<char>::__short" = type { %struct.anon, [0 x i8], [23 x i8] }

; Function Attrs: mustprogress nounwind uwtable
define linkonce_odr hidden noundef nonnull align 8 dereferenceable(24) ptr @_ZNKSt3__122__compressed_pair_elemINS_12basic_stringIcNS_11char_traitsIcEENS_9allocatorIcEEE5__repELi0ELb0EE5__getB8ne190000Ev(ptr noundef nonnull align 8 dereferenceable(24) %0) #1 comdat align 2 {
  %2 = alloca ptr, align 8
  store ptr %0, ptr %2, align 8
  %3 = load ptr, ptr %2, align 8
  %4 = getelementptr inbounds %"struct.std::__1::__compressed_pair_elem", ptr %3, i32 0, i32 0
  ret ptr %4
}

; Function Attrs: mustprogress nounwind uwtable
define linkonce_odr hidden noundef i64 @_ZNKSt3__112basic_stringIcNS_11char_traitsIcEENS_9allocatorIcEEE16__get_short_sizeB8ne190000Ev(ptr noundef nonnull align 8 dereferenceable(24) %0) #1 comdat align 2 {
  %2 = alloca ptr, align 8
  store ptr %0, ptr %2, align 8
  %3 = load ptr, ptr %2, align 8
  %4 = getelementptr inbounds %"class.std::__1::basic_string", ptr %3, i32 0, i32 0
  %5 = call noundef nonnull align 8 dereferenceable(24) ptr @_ZNKSt3__117__compressed_pairINS_12basic_stringIcNS_11char_traitsIcEENS_9allocatorIcEEE5__repES5_E5firstB8ne190000Ev(ptr noundef nonnull align 8 dereferenceable(24) %4) #13
  %6 = getelementptr inbounds %"struct.std::__1::basic_string<char>::__rep", ptr %5, i32 0, i32 0
  %7 = getelementptr inbounds %"struct.std::__1::basic_string<char>::__short", ptr %6, i32 0, i32 0
  %8 = load i8, ptr %7, align 8
  %9 = lshr i8 %8, 1
  %10 = zext i8 %9 to i64
  ret i64 %10
}

; Function Attrs: mustprogress nounwind uwtable
define linkonce_odr hidden noundef i64 @_ZNKSt3__112basic_stringIcNS_11char_traitsIcEENS_9allocatorIcEEE15__get_long_sizeB8ne190000Ev(ptr noundef nonnull align 8 dereferenceable(24) %0) #1 comdat align 2 {
  %2 = alloca ptr, align 8
  store ptr %0, ptr %2, align 8
  %3 = load ptr, ptr %2, align 8
  %4 = getelementptr inbounds %"class.std::__1::basic_string", ptr %3, i32 0, i32 0
  %5 = call noundef nonnull align 8 dereferenceable(24) ptr @_ZNKSt3__117__compressed_pairINS_12basic_stringIcNS_11char_traitsIcEENS_9allocatorIcEEE5__repES5_E5firstB8ne190000Ev(ptr noundef nonnull align 8 dereferenceable(24) %4) #13
  %6 = getelementptr inbounds %"struct.std::__1::basic_string<char>::__rep", ptr %5, i32 0, i32 0
  %7 = getelementptr inbounds %"struct.std::__1::basic_string<char>::__long", ptr %6, i32 0, i32 1
  %8 = load i64, ptr %7, align 8
  ret i64 %8
}

; Function Attrs: mustprogress nounwind uwtable
define linkonce_odr hidden noundef nonnull align 8 dereferenceable(24) ptr @_ZNKSt3__117__compressed_pairINS_12basic_stringIcNS_11char_traitsIcEENS_9allocatorIcEEE5__repES5_E5firstB8ne190000Ev(ptr noundef nonnull align 8 dereferenceable(24) %0) #1 comdat align 2 {
  %2 = alloca ptr, align 8
  store ptr %0, ptr %2, align 8
  %3 = load ptr, ptr %2, align 8
  %4 = call noundef nonnull align 8 dereferenceable(24) ptr @_ZNKSt3__122__compressed_pair_elemINS_12basic_stringIcNS_11char_traitsIcEENS_9allocatorIcEEE5__repELi0ELb0EE5__getB8ne190000Ev(ptr noundef nonnull align 8 dereferenceable(24) %3) #13
  ret ptr %4
}

; Function Attrs: mustprogress nounwind uwtable
define linkonce_odr hidden noundef nonnull align 8 dereferenceable(24) ptr @_ZNSt3__122__compressed_pair_elemINS_12basic_stringIcNS_11char_traitsIcEENS_9allocatorIcEEE5__repELi0ELb0EE5__getB8ne190000Ev(ptr noundef nonnull align 8 dereferenceable(24) %0) #1 comdat align 2 {
  %2 = alloca ptr, align 8
  store ptr %0, ptr %2, align 8
  %3 = load ptr, ptr %2, align 8
  %4 = getelementptr inbounds %"struct.std::__1::__compressed_pair_elem", ptr %3, i32 0, i32 0
  ret ptr %4
}

; Function Attrs: mustprogress nounwind uwtable
define linkonce_odr hidden void @_ZNKSt3__112basic_stringIcNS_11char_traitsIcEENS_9allocatorIcEEE17__annotate_deleteB8ne190000Ev(ptr noundef nonnull align 8 dereferenceable(24) %0) #1 comdat align 2 {
  %2 = alloca ptr, align 8
  store ptr %0, ptr %2, align 8
  ret void
}

; Function Attrs: noreturn nounwind uwtable
define linkonce_odr hidden void @__clang_call_terminate(ptr noundef %0) #9 comdat {
  %2 = call ptr @__cxa_begin_catch(ptr %0) #13
  call void @_ZSt9terminatev() #20
  unreachable
}

; Function Attrs: mustprogress nounwind uwtable
define linkonce_odr hidden noundef i64 @_ZNKSt3__112basic_stringIcNS_11char_traitsIcEENS_9allocatorIcEEE4sizeB8ne190000Ev(ptr noundef nonnull align 8 dereferenceable(24) %0) #1 comdat align 2 {
  %2 = alloca ptr, align 8
  store ptr %0, ptr %2, align 8
  %3 = load ptr, ptr %2, align 8
  %4 = call noundef zeroext i1 @_ZNKSt3__112basic_stringIcNS_11char_traitsIcEENS_9allocatorIcEEE9__is_longB8ne190000Ev(ptr noundef nonnull align 8 dereferenceable(24) %3) #13
  br i1 %4, label %5, label %7

5:                                                ; preds = %1
  %6 = call noundef i64 @_ZNKSt3__112basic_stringIcNS_11char_traitsIcEENS_9allocatorIcEEE15__get_long_sizeB8ne190000Ev(ptr noundef nonnull align 8 dereferenceable(24) %3) #13
  br label %9

7:                                                ; preds = %1
  %8 = call noundef i64 @_ZNKSt3__112basic_stringIcNS_11char_traitsIcEENS_9allocatorIcEEE16__get_short_sizeB8ne190000Ev(ptr noundef nonnull align 8 dereferenceable(24) %3) #13
  br label %9

9:                                                ; preds = %7, %5
  %10 = phi i64 [ %6, %5 ], [ %8, %7 ]
  ret i64 %10
}

; Function Attrs: mustprogress nounwind uwtable
define linkonce_odr hidden noundef zeroext i1 @_ZNKSt3__112basic_stringIcNS_11char_traitsIcEENS_9allocatorIcEEE9__is_longB8ne190000Ev(ptr noundef nonnull align 8 dereferenceable(24) %0) #1 comdat align 2 {
  %2 = alloca ptr, align 8
  store ptr %0, ptr %2, align 8
  %3 = load ptr, ptr %2, align 8
  %4 = getelementptr inbounds %"class.std::__1::basic_string", ptr %3, i32 0, i32 0
  %5 = call noundef nonnull align 8 dereferenceable(24) ptr @_ZNKSt3__117__compressed_pairINS_12basic_stringIcNS_11char_traitsIcEENS_9allocatorIcEEE5__repES5_E5firstB8ne190000Ev(ptr noundef nonnull align 8 dereferenceable(24) %4) #13
  %6 = getelementptr inbounds %"struct.std::__1::basic_string<char>::__rep", ptr %5, i32 0, i32 0
  %7 = getelementptr inbounds %"struct.std::__1::basic_string<char>::__short", ptr %6, i32 0, i32 0
  %8 = load i8, ptr %7, align 8
  %9 = and i8 %8, 1
  %10 = icmp ne i8 %9, 0
  ret i1 %10
}

; Function Attrs: mustprogress nounwind uwtable
define linkonce_odr hidden void @_ZNKSt3__112basic_stringIcNS_11char_traitsIcEENS_9allocatorIcEEE14__annotate_newB8ne190000Em(ptr noundef nonnull align 8 dereferenceable(24) %0, i64 noundef %1) #1 comdat align 2 {
  %3 = alloca ptr, align 8
  %4 = alloca i64, align 8
  store ptr %0, ptr %3, align 8
  store i64 %1, ptr %4, align 8
  ret void
}

; Function Attrs: mustprogress nounwind uwtable
define linkonce_odr hidden noundef nonnull align 8 dereferenceable(24) ptr @_ZNSt3__117__compressed_pairINS_12basic_stringIcNS_11char_traitsIcEENS_9allocatorIcEEE5__repES5_E5firstB8ne190000Ev(ptr noundef nonnull align 8 dereferenceable(24) %0) #1 comdat align 2 {
  %2 = alloca ptr, align 8
  store ptr %0, ptr %2, align 8
  %3 = load ptr, ptr %2, align 8
  %4 = call noundef nonnull align 8 dereferenceable(24) ptr @_ZNSt3__122__compressed_pair_elemINS_12basic_stringIcNS_11char_traitsIcEENS_9allocatorIcEEE5__repELi0ELb0EE5__getB8ne190000Ev(ptr noundef nonnull align 8 dereferenceable(24) %3) #13
  ret ptr %4
}

; Function Attrs: mustprogress nounwind uwtable
define linkonce_odr hidden noundef nonnull align 8 dereferenceable(24) ptr @_ZZNSt3__112basic_stringIcNS_11char_traitsIcEENS_9allocatorIcEEEC1B8ne190000EOS5_ENKUlRS5_E_clES7_(ptr noundef nonnull align 1 dereferenceable(1) %0, ptr noundef nonnull align 8 dereferenceable(24) %1) #1 comdat align 2 {
  %3 = alloca ptr, align 8
  %4 = alloca ptr, align 8
  store ptr %0, ptr %3, align 8
  store ptr %1, ptr %4, align 8
  %5 = load ptr, ptr %4, align 8
  %6 = call noundef zeroext i1 @_ZNKSt3__112basic_stringIcNS_11char_traitsIcEENS_9allocatorIcEEE9__is_longB8ne190000Ev(ptr noundef nonnull align 8 dereferenceable(24) %5) #13
  br i1 %6, label %9, label %7

7:                                                ; preds = %2
  %8 = load ptr, ptr %4, align 8
  call void @_ZNKSt3__112basic_stringIcNS_11char_traitsIcEENS_9allocatorIcEEE17__annotate_deleteB8ne190000Ev(ptr noundef nonnull align 8 dereferenceable(24) %8) #13
  br label %9

9:                                                ; preds = %7, %2
  %10 = load ptr, ptr %4, align 8
  %11 = getelementptr inbounds %"class.std::__1::basic_string", ptr %10, i32 0, i32 0
  ret ptr %11
}

; Function Attrs: mustprogress nounwind uwtable
define linkonce_odr dso_local void @_ZNSt3__14pairINS_12basic_stringIcNS_11char_traitsIcEENS_9allocatorIcEEEES6_ED2Ev(ptr noundef nonnull align 8 dereferenceable(48) %0) unnamed_addr #1 comdat align 2 {
  %2 = alloca ptr, align 8
  store ptr %0, ptr %2, align 8
  %3 = load ptr, ptr %2, align 8
  %4 = getelementptr inbounds %"struct.std::__1::pair", ptr %3, i32 0, i32 1
  call void @_ZNSt3__112basic_stringIcNS_11char_traitsIcEENS_9allocatorIcEEED1Ev(ptr noundef nonnull align 8 dereferenceable(24) %4) #13
  %5 = getelementptr inbounds %"struct.std::__1::pair", ptr %3, i32 0, i32 0
  call void @_ZNSt3__112basic_stringIcNS_11char_traitsIcEENS_9allocatorIcEEED1Ev(ptr noundef nonnull align 8 dereferenceable(24) %5) #13
  ret void
}

; Function Attrs: mustprogress nounwind uwtable
define linkonce_odr hidden void @_ZNSt3__112basic_stringIcNS_11char_traitsIcEENS_9allocatorIcEEEC2B8ne190000EOS5_(ptr noundef nonnull align 8 dereferenceable(24) %0, ptr noundef nonnull align 8 dereferenceable(24) %1) unnamed_addr #1 comdat align 2 personality ptr @__gxx_personality_v0 {
  %3 = alloca ptr, align 8
  %4 = alloca ptr, align 8
  %5 = alloca %class.anon.31, align 1
  %6 = alloca %"struct.std::__1::basic_string<char>::__rep", align 8
  store ptr %0, ptr %3, align 8
  store ptr %1, ptr %4, align 8
  %7 = load ptr, ptr %3, align 8
  %8 = getelementptr inbounds %"class.std::__1::basic_string", ptr %7, i32 0, i32 0
  %9 = load ptr, ptr %4, align 8
  %10 = invoke noundef nonnull align 8 dereferenceable(24) ptr @_ZZNSt3__112basic_stringIcNS_11char_traitsIcEENS_9allocatorIcEEEC1B8ne190000EOS5_ENKUlRS5_E_clES7_(ptr noundef nonnull align 1 dereferenceable(1) %5, ptr noundef nonnull align 8 dereferenceable(24) %9)
          to label %11 unwind label %20

11:                                               ; preds = %2
  call void @llvm.memcpy.p0.p0.i64(ptr align 8 %8, ptr align 8 %10, i64 24, i1 false)
  call void @llvm.memset.p0.i64(ptr align 8 %6, i8 0, i64 24, i1 false)
  %12 = load ptr, ptr %4, align 8
  %13 = getelementptr inbounds %"class.std::__1::basic_string", ptr %12, i32 0, i32 0
  %14 = call noundef nonnull align 8 dereferenceable(24) ptr @_ZNSt3__117__compressed_pairINS_12basic_stringIcNS_11char_traitsIcEENS_9allocatorIcEEE5__repES5_E5firstB8ne190000Ev(ptr noundef nonnull align 8 dereferenceable(24) %13) #13
  call void @llvm.memcpy.p0.p0.i64(ptr align 8 %14, ptr align 8 %6, i64 24, i1 false)
  %15 = load ptr, ptr %4, align 8
  call void @_ZNKSt3__112basic_stringIcNS_11char_traitsIcEENS_9allocatorIcEEE14__annotate_newB8ne190000Em(ptr noundef nonnull align 8 dereferenceable(24) %15, i64 noundef 0) #13
  %16 = call noundef zeroext i1 @_ZNKSt3__112basic_stringIcNS_11char_traitsIcEENS_9allocatorIcEEE9__is_longB8ne190000Ev(ptr noundef nonnull align 8 dereferenceable(24) %7) #13
  br i1 %16, label %19, label %17

17:                                               ; preds = %11
  %18 = call noundef i64 @_ZNKSt3__112basic_stringIcNS_11char_traitsIcEENS_9allocatorIcEEE4sizeB8ne190000Ev(ptr noundef nonnull align 8 dereferenceable(24) %7) #13
  call void @_ZNKSt3__112basic_stringIcNS_11char_traitsIcEENS_9allocatorIcEEE14__annotate_newB8ne190000Em(ptr noundef nonnull align 8 dereferenceable(24) %7, i64 noundef %18) #13
  br label %19

19:                                               ; preds = %17, %11
  ret void

20:                                               ; preds = %2
  %21 = landingpad { ptr, i32 }
          catch ptr null
  %22 = extractvalue { ptr, i32 } %21, 0
  call void @__clang_call_terminate(ptr %22) #20
  unreachable
}

; Function Attrs: mustprogress uwtable
define dso_local void @_ZN3tev7Channel4headERKNSt3__112basic_stringIcNS1_11char_traitsIcEENS1_9allocatorIcEEEE(ptr dead_on_unwind noalias writable sret(%"class.std::__1::basic_string") align 8 %0, ptr noundef nonnull align 8 dereferenceable(24) %1) #4 align 2 {
  %3 = alloca ptr, align 8
  %4 = alloca ptr, align 8
  %5 = alloca %"struct.std::__1::pair", align 8
  store ptr %0, ptr %3, align 8
  store ptr %1, ptr %4, align 8
  %6 = load ptr, ptr %4, align 8
  call void @_ZN3tev7Channel5splitERKNSt3__112basic_stringIcNS1_11char_traitsIcEENS1_9allocatorIcEEEE(ptr dead_on_unwind writable sret(%"struct.std::__1::pair") align 8 %5, ptr noundef nonnull align 8 dereferenceable(24) %6)
  %7 = getelementptr inbounds %"struct.std::__1::pair", ptr %5, i32 0, i32 0
  call void @_ZNSt3__112basic_stringIcNS_11char_traitsIcEENS_9allocatorIcEEEC2B8ne190000EOS5_(ptr noundef nonnull align 8 dereferenceable(24) %0, ptr noundef nonnull align 8 dereferenceable(24) %7) #13
  call void @_ZNSt3__14pairINS_12basic_stringIcNS_11char_traitsIcEENS_9allocatorIcEEEES6_ED2Ev(ptr noundef nonnull align 8 dereferenceable(48) %5) #13
  ret void
}